; Function Attrs: alwaysinline norecurse nounwind uwtable
define internal void @_ZNK8LightGBM16RegressionMetricINS_8L1MetricEE4EvalEPKdPKNS_17ObjectiveFunctionE.omp_outlined.34(ptr noalias noundef readonly captures(none) %0, ptr noalias readnone captures(none) %1, ptr noundef readonly captures(none) %2, ptr noundef nonnull readonly align 8 captures(none) dereferenceable(8) %3, ptr noundef nonnull readonly align 8 captures(none) dereferenceable(8) %4, ptr noundef nonnull align 8 captures(none) dereferenceable(8) %5) #15 personality ptr @__gxx_personality_v0 {
  %7 = alloca i32, align 4
  %8 = alloca i32, align 4
  %9 = alloca i32, align 4
  %10 = alloca i32, align 4
  %11 = alloca double, align 8
  %12 = alloca double, align 8
  %13 = alloca [1 x ptr], align 8
  %14 = getelementptr inbounds nuw i8, ptr %2, i64 8
  %15 = load i32, ptr %14, align 8, !tbaa !136
  %16 = icmp sgt i32 %15, 0
  br i1 %16, label %17, label %58

17:                                               ; preds = %6
  %18 = add nsw i32 %15, -1
  call void @llvm.lifetime.start.p0(i64 4, ptr nonnull %7) #16
  store i32 0, ptr %7, align 4, !tbaa !127
  call void @llvm.lifetime.start.p0(i64 4, ptr nonnull %8) #16
  store i32 %18, ptr %8, align 4, !tbaa !127
  call void @llvm.lifetime.start.p0(i64 4, ptr nonnull %9) #16
  store i32 1, ptr %9, align 4, !tbaa !127
  call void @llvm.lifetime.start.p0(i64 4, ptr nonnull %10) #16
  store i32 0, ptr %10, align 4, !tbaa !127
  call void @llvm.lifetime.start.p0(i64 8, ptr nonnull %11) #16
  store double 0.000000e+00, ptr %11, align 8, !tbaa !84
  %19 = load i32, ptr %0, align 4, !tbaa !127
  call void @__kmpc_for_static_init_4(ptr nonnull @1, i32 %19, i32 34, ptr nonnull %10, ptr nonnull %7, ptr nonnull %8, ptr nonnull %9, i32 1, i32 1)
  %20 = load i32, ptr %8, align 4, !tbaa !127
  %21 = call i32 @llvm.smin.i32(i32 %20, i32 %18)
  store i32 %21, ptr %8, align 4, !tbaa !127
  %22 = load i32, ptr %7, align 4, !tbaa !127
  %.not17 = icmp sgt i32 %22, %21
  br i1 %.not17, label %._crit_edge, label %.lr.ph

.lr.ph:                                           ; preds = %17
  %23 = getelementptr inbounds nuw i8, ptr %2, i64 16
  %24 = getelementptr inbounds nuw i8, ptr %2, i64 24
  %25 = sext i32 %22 to i64
  br label %26

26:                                               ; preds = %.lr.ph, %34
  %27 = phi double [ 0.000000e+00, %.lr.ph ], [ %46, %34 ]
  %indvars.iv = phi i64 [ %25, %.lr.ph ], [ %indvars.iv.next, %34 ]
  call void @llvm.lifetime.start.p0(i64 8, ptr nonnull %12) #16
  store double 0.000000e+00, ptr %12, align 8, !tbaa !84
  %28 = load ptr, ptr %3, align 8, !tbaa !82
  %29 = load ptr, ptr %4, align 8, !tbaa !81
  %30 = getelementptr inbounds double, ptr %29, i64 %indvars.iv
  %31 = load ptr, ptr %28, align 8, !tbaa !15
  %32 = getelementptr inbounds nuw i8, ptr %31, i64 136
  %33 = load ptr, ptr %32, align 8
  invoke void %33(ptr noundef nonnull align 8 dereferenceable(8) %28, ptr noundef %30, ptr noundef nonnull %12)
          to label %34 unwind label %59

34:                                               ; preds = %26
  %35 = load ptr, ptr %23, align 8, !tbaa !138
  %36 = getelementptr inbounds float, ptr %35, i64 %indvars.iv
  %37 = load float, ptr %36, align 4, !tbaa !78
  %38 = load double, ptr %12, align 8, !tbaa !84
  %39 = fpext float %37 to double
  %40 = fsub double %38, %39
  %41 = call noundef double @llvm.fabs.f64(double %40)
  %42 = load ptr, ptr %24, align 8, !tbaa !139
  %43 = getelementptr inbounds float, ptr %42, i64 %indvars.iv
  %44 = load float, ptr %43, align 4, !tbaa !78
  %45 = fpext float %44 to double
  %46 = call double @llvm.fmuladd.f64(double %41, double %45, double %27)
  store double %46, ptr %11, align 8, !tbaa !84
  call void @llvm.lifetime.end.p0(i64 8, ptr nonnull %12) #16
  %indvars.iv.next = add nsw i64 %indvars.iv, 1
  %47 = load i32, ptr %8, align 4, !tbaa !127
  %48 = sext i32 %47 to i64
  %.not.not = icmp slt i64 %indvars.iv, %48
  br i1 %.not.not, label %26, label %._crit_edge

._crit_edge:                                      ; preds = %34, %17
  call void @__kmpc_for_static_fini(ptr nonnull @1, i32 %19)
  store ptr %11, ptr %13, align 8
  %49 = call i32 @__kmpc_reduce_nowait(ptr nonnull @2, i32 %19, i32 1, i64 8, ptr nonnull %13, ptr nonnull @_ZNK8LightGBM16RegressionMetricINS_8L1MetricEE4EvalEPKdPKNS_17ObjectiveFunctionE.omp_outlined.34.omp.reduction.reduction_func, ptr nonnull @.gomp_critical_user_.reduction.var)
  switch i32 %49, label %57 [
    i32 1, label %50
    i32 2, label %54
  ]

50:                                               ; preds = %._crit_edge
  %51 = load double, ptr %5, align 8, !tbaa !84
  %52 = load double, ptr %11, align 8, !tbaa !84
  %53 = fadd double %51, %52
  store double %53, ptr %5, align 8, !tbaa !84
  call void @__kmpc_end_reduce_nowait(ptr nonnull @2, i32 %19, ptr nonnull @.gomp_critical_user_.reduction.var)
  br label %57

54:                                               ; preds = %._crit_edge
  %55 = load double, ptr %11, align 8, !tbaa !84
  %56 = atomicrmw fadd ptr %5, double %55 monotonic, align 8
  br label %57

57:                                               ; preds = %54, %50, %._crit_edge
  call void @llvm.lifetime.end.p0(i64 8, ptr nonnull %11) #16
  call void @llvm.lifetime.end.p0(i64 4, ptr nonnull %10) #16
  call void @llvm.lifetime.end.p0(i64 4, ptr nonnull %9) #16
  call void @llvm.lifetime.end.p0(i64 4, ptr nonnull %8) #16
  call void @llvm.lifetime.end.p0(i64 4, ptr nonnull %7) #16
  br label %58

58:                                               ; preds = %57, %6
  ret void

59:                                               ; preds = %26
  %60 = landingpad { ptr, i32 }
          catch ptr null
  %61 = extractvalue { ptr, i32 } %60, 0
  call void @__clang_call_terminate(ptr %61) #35
  unreachable
}